; ModuleID = '6/45.c'
source_filename = "6/45.c"
target datalayout = "e-m:e-p270:32:32-p271:32:32-p272:64:64-i64:64-f80:128-n8:16:32:64-S128"
target triple = "x86_64-pc-linux-gnu"

@.str = private unnamed_addr constant [3 x i8] c"%d\00", align 1
@.str.1 = private unnamed_addr constant [6 x i8] c"%d %d\00", align 1
@.str.2 = private unnamed_addr constant [2 x i8] c"\0A\00", align 1
@.str.3 = private unnamed_addr constant [4 x i8] c"%d\0A\00", align 1

; Function Attrs: noinline nounwind uwtable
define dso_local void @main() #0 {
  %1 = alloca i32, align 4
  %2 = alloca i32, align 4
  %3 = alloca i32, align 4
  %4 = alloca i32, align 4
  %5 = alloca i32, align 4
  %6 = alloca i32, align 4
  %7 = alloca i32, align 4
  %8 = alloca [100 x [100 x i32*]], align 16
  store i32 0, i32* %5, align 4
  %9 = call i32 (i8*, ...) @__isoc99_scanf(i8* getelementptr inbounds ([3 x i8], [3 x i8]* @.str, i64 0, i64 0), i32* %2)
  store i32 0, i32* %1, align 4
  br label %10

10:                                               ; preds = %114, %0
  %11 = load i32, i32* %1, align 4
  %12 = load i32, i32* %2, align 4
  %13 = icmp slt i32 %11, %12
  br i1 %13, label %14, label %117

14:                                               ; preds = %10
  %15 = call i32 (i8*, ...) @__isoc99_scanf(i8* getelementptr inbounds ([6 x i8], [6 x i8]* @.str.1, i64 0, i64 0), i32* %6, i32* %7)
  store i32 0, i32* %3, align 4
  br label %16

16:                                               ; preds = %53, %14
  %17 = load i32, i32* %3, align 4
  %18 = load i32, i32* %6, align 4
  %19 = icmp slt i32 %17, %18
  br i1 %19, label %20, label %56

20:                                               ; preds = %16
  store i32 0, i32* %4, align 4
  br label %21

21:                                               ; preds = %49, %20
  %22 = load i32, i32* %4, align 4
  %23 = load i32, i32* %7, align 4
  %24 = icmp slt i32 %22, %23
  br i1 %24, label %25, label %52

25:                                               ; preds = %21
  %26 = call noalias i8* @malloc(i64 4) #3
  %27 = bitcast i8* %26 to i32*
  %28 = load i32, i32* %3, align 4
  %29 = sext i32 %28 to i64
  %30 = getelementptr inbounds [100 x [100 x i32*]], [100 x [100 x i32*]]* %8, i64 0, i64 %29
  %31 = load i32, i32* %4, align 4
  %32 = sext i32 %31 to i64
  %33 = getelementptr inbounds [100 x i32*], [100 x i32*]* %30, i64 0, i64 %32
  store i32* %27, i32** %33, align 8
  %34 = load i32, i32* %3, align 4
  %35 = sext i32 %34 to i64
  %36 = getelementptr inbounds [100 x [100 x i32*]], [100 x [100 x i32*]]* %8, i64 0, i64 %35
  %37 = load i32, i32* %4, align 4
  %38 = sext i32 %37 to i64
  %39 = getelementptr inbounds [100 x i32*], [100 x i32*]* %36, i64 0, i64 %38
  %40 = load i32*, i32** %39, align 8
  %41 = call i32 (i8*, ...) @__isoc99_scanf(i8* getelementptr inbounds ([3 x i8], [3 x i8]* @.str, i64 0, i64 0), i32* %40)
  %42 = load i32, i32* %4, align 4
  %43 = load i32, i32* %7, align 4
  %44 = sub nsw i32 %43, 1
  %45 = icmp eq i32 %42, %44
  br i1 %45, label %46, label %48

46:                                               ; preds = %25
  %47 = call i32 (i8*, ...) @__isoc99_scanf(i8* getelementptr inbounds ([2 x i8], [2 x i8]* @.str.2, i64 0, i64 0))
  br label %48

48:                                               ; preds = %46, %25
  br label %49

49:                                               ; preds = %48
  %50 = load i32, i32* %4, align 4
  %51 = add nsw i32 %50, 1
  store i32 %51, i32* %4, align 4
  br label %21

52:                                               ; preds = %21
  br label %53

53:                                               ; preds = %52
  %54 = load i32, i32* %3, align 4
  %55 = add nsw i32 %54, 1
  store i32 %55, i32* %3, align 4
  br label %16

56:                                               ; preds = %16
  store i32 0, i32* %4, align 4
  br label %57

57:                                               ; preds = %80, %56
  %58 = load i32, i32* %4, align 4
  %59 = load i32, i32* %7, align 4
  %60 = icmp slt i32 %58, %59
  br i1 %60, label %61, label %83

61:                                               ; preds = %57
  %62 = load i32, i32* %5, align 4
  %63 = getelementptr inbounds [100 x [100 x i32*]], [100 x [100 x i32*]]* %8, i64 0, i64 0
  %64 = load i32, i32* %4, align 4
  %65 = sext i32 %64 to i64
  %66 = getelementptr inbounds [100 x i32*], [100 x i32*]* %63, i64 0, i64 %65
  %67 = load i32*, i32** %66, align 8
  %68 = load i32, i32* %67, align 4
  %69 = add nsw i32 %62, %68
  %70 = load i32, i32* %6, align 4
  %71 = sub nsw i32 %70, 1
  %72 = sext i32 %71 to i64
  %73 = getelementptr inbounds [100 x [100 x i32*]], [100 x [100 x i32*]]* %8, i64 0, i64 %72
  %74 = load i32, i32* %4, align 4
  %75 = sext i32 %74 to i64
  %76 = getelementptr inbounds [100 x i32*], [100 x i32*]* %73, i64 0, i64 %75
  %77 = load i32*, i32** %76, align 8
  %78 = load i32, i32* %77, align 4
  %79 = add nsw i32 %69, %78
  store i32 %79, i32* %5, align 4
  br label %80

80:                                               ; preds = %61
  %81 = load i32, i32* %4, align 4
  %82 = add nsw i32 %81, 1
  store i32 %82, i32* %4, align 4
  br label %57

83:                                               ; preds = %57
  store i32 1, i32* %3, align 4
  br label %84

84:                                               ; preds = %108, %83
  %85 = load i32, i32* %3, align 4
  %86 = load i32, i32* %6, align 4
  %87 = sub nsw i32 %86, 1
  %88 = icmp slt i32 %85, %87
  br i1 %88, label %89, label %111

89:                                               ; preds = %84
  %90 = load i32, i32* %5, align 4
  %91 = load i32, i32* %3, align 4
  %92 = sext i32 %91 to i64
  %93 = getelementptr inbounds [100 x [100 x i32*]], [100 x [100 x i32*]]* %8, i64 0, i64 %92
  %94 = getelementptr inbounds [100 x i32*], [100 x i32*]* %93, i64 0, i64 0
  %95 = load i32*, i32** %94, align 16
  %96 = load i32, i32* %95, align 4
  %97 = add nsw i32 %90, %96
  %98 = load i32, i32* %3, align 4
  %99 = sext i32 %98 to i64
  %100 = getelementptr inbounds [100 x [100 x i32*]], [100 x [100 x i32*]]* %8, i64 0, i64 %99
  %101 = load i32, i32* %7, align 4
  %102 = sub nsw i32 %101, 1
  %103 = sext i32 %102 to i64
  %104 = getelementptr inbounds [100 x i32*], [100 x i32*]* %100, i64 0, i64 %103
  %105 = load i32*, i32** %104, align 8
  %106 = load i32, i32* %105, align 4
  %107 = add nsw i32 %97, %106
  store i32 %107, i32* %5, align 4
  br label %108

108:                                              ; preds = %89
  %109 = load i32, i32* %3, align 4
  %110 = add nsw i32 %109, 1
  store i32 %110, i32* %3, align 4
  br label %84

111:                                              ; preds = %84
  %112 = load i32, i32* %5, align 4
  %113 = call i32 (i8*, ...) @printf(i8* getelementptr inbounds ([4 x i8], [4 x i8]* @.str.3, i64 0, i64 0), i32 %112)
  store i32 0, i32* %5, align 4
  br label %114

114:                                              ; preds = %111
  %115 = load i32, i32* %1, align 4
  %116 = add nsw i32 %115, 1
  store i32 %116, i32* %1, align 4
  br label %10

117:                                              ; preds = %10
  ret void
}

declare dso_local i32 @__isoc99_scanf(i8*, ...) #1

; Function Attrs: nounwind
declare dso_local noalias i8* @malloc(i64) #2

declare dso_local i32 @printf(i8*, ...) #1


!llvm.module.flags = !{!0}
!llvm.ident = !{!1}

!0 = !{i32 1, !"wchar_size", i32 4}
!1 = !{!"clang version 10.0.0-4ubuntu1 "}
